target datalayout = "e-m:e-p270:32:32-p271:32:32-p272:64:64-i64:64-i128:128-f80:128-n8:16:32:64-S128"
target triple = "x86_64-pc-linux-gnu"

%struct.AVFilterContext = type { ptr, ptr, ptr, ptr, ptr, i32, ptr, ptr, i32, ptr, ptr, i32, i32, ptr, ptr, ptr, ptr, i32, ptr, i32, i32 }
%struct.ESTDIFContext = type { ptr, i32, i32, i32, i32, i32, i32, i32, i32, i32, [4 x i32], [4 x i32], [4 x i32], i32, i32, i32, i32, i32, i32, ptr, ptr, [3 x ptr], [3 x ptr] }
%struct.AVFilterLink = type { ptr, ptr, ptr, ptr, i32, i32, i32, i32, %struct.AVRational, i32, i32, i32, %struct.AVChannelLayout, %struct.AVRational, ptr, i32, %struct.AVFilterFormatsConfig, %struct.AVFilterFormatsConfig }
%struct.AVChannelLayout = type { i32, i32, %union.anon.1, ptr }
%union.anon.1 = type { i64 }
%struct.AVRational = type { i32, i32 }
%struct.AVFilterFormatsConfig = type { ptr, ptr, ptr, ptr, ptr }
%struct.AVFrame = type { [8 x ptr], [8 x i32], ptr, i32, i32, i32, i32, i32, %struct.AVRational, i64, i64, %struct.AVRational, i32, ptr, i32, i32, [8 x ptr], ptr, i32, ptr, i32, i32, i32, i32, i32, i32, i32, i64, ptr, i32, ptr, ptr, i64, i64, i64, i64, ptr, %struct.AVChannelLayout, i64 }
%struct.FilterLink = type { %struct.AVFilterLink, ptr, i64, i64, i32, i32, i64, i64, i64, i64, %struct.AVRational, ptr }

; Function Attrs: alwaysinline nounwind uwtable
define internal i64 @av_inv_q(i64 %0) #11 {
  %2 = alloca %struct.AVRational, align 4
  %3 = alloca %struct.AVRational, align 4
  store i64 %0, ptr %3, align 4
  %4 = getelementptr inbounds nuw %struct.AVRational, ptr %2, i32 0, i32 0
  %5 = getelementptr inbounds nuw %struct.AVRational, ptr %3, i32 0, i32 1
  %6 = load i32, ptr %5, align 4, !tbaa !114
  store i32 %6, ptr %4, align 4, !tbaa !113
  %7 = getelementptr inbounds nuw %struct.AVRational, ptr %2, i32 0, i32 1
  %8 = getelementptr inbounds nuw %struct.AVRational, ptr %3, i32 0, i32 0
  %9 = load i32, ptr %8, align 4, !tbaa !113
  store i32 %9, ptr %7, align 4, !tbaa !114
  %10 = load i64, ptr %2, align 4
  ret i64 %10
}

; Function Attrs: inlinehint nounwind uwtable
define internal ptr @ff_filter_link(ptr noundef %0) #9 {
  %2 = alloca ptr, align 8
  store ptr %0, ptr %2, align 8, !tbaa !24
  %3 = load ptr, ptr %2, align 8, !tbaa !24
  ret ptr %3
}

; Function Attrs: nounwind uwtable
define internal i32 @request_frame(ptr noundef %0) #2 {
  %2 = alloca i32, align 4
  %3 = alloca ptr, align 8
  %4 = alloca ptr, align 8
  %5 = alloca ptr, align 8
  %6 = alloca ptr, align 8
  %7 = alloca i32, align 4
  %8 = alloca i32, align 4
  %9 = alloca ptr, align 8
  %10 = alloca %struct.AVRational, align 4
  store ptr %0, ptr %3, align 8, !tbaa !24
  call void @llvm.lifetime.start.p0(i64 8, ptr %4) #12
  %11 = load ptr, ptr %3, align 8, !tbaa !24
  %12 = call ptr @ff_filter_link(ptr noundef %11)
  store ptr %12, ptr %4, align 8, !tbaa !108
  call void @llvm.lifetime.start.p0(i64 8, ptr %5) #12
  %13 = load ptr, ptr %3, align 8, !tbaa !24
  %14 = getelementptr inbounds nuw %struct.AVFilterLink, ptr %13, i32 0, i32 0
  %15 = load ptr, ptr %14, align 8, !tbaa !110
  store ptr %15, ptr %5, align 8, !tbaa !4
  call void @llvm.lifetime.start.p0(i64 8, ptr %6) #12
  %16 = load ptr, ptr %5, align 8, !tbaa !4
  %17 = getelementptr inbounds nuw %struct.AVFilterContext, ptr %16, i32 0, i32 9
  %18 = load ptr, ptr %17, align 8, !tbaa !9
  store ptr %18, ptr %6, align 8, !tbaa !22
  call void @llvm.lifetime.start.p0(i64 4, ptr %7) #12
  %19 = load ptr, ptr %6, align 8, !tbaa !22
  %20 = getelementptr inbounds nuw %struct.ESTDIFContext, ptr %19, i32 0, i32 14
  %21 = load i32, ptr %20, align 8, !tbaa !111
  %22 = icmp ne i32 %21, 0
  br i1 %22, label %23, label %24

23:                                               ; preds = %1
  store i32 -541478725, ptr %2, align 4
  store i32 1, ptr %8, align 4
  br label %88

24:                                               ; preds = %1
  %25 = load ptr, ptr %5, align 8, !tbaa !4
  %26 = getelementptr inbounds nuw %struct.AVFilterContext, ptr %25, i32 0, i32 4
  %27 = load ptr, ptr %26, align 8, !tbaa !112
  %28 = getelementptr inbounds ptr, ptr %27, i64 0
  %29 = load ptr, ptr %28, align 8, !tbaa !24
  %30 = call i32 @ff_request_frame(ptr noundef %29)
  store i32 %30, ptr %7, align 4, !tbaa !49
  %31 = load i32, ptr %7, align 4, !tbaa !49
  %32 = icmp eq i32 %31, -541478725
  br i1 %32, label %33, label %80

33:                                               ; preds = %24
  %34 = load ptr, ptr %6, align 8, !tbaa !22
  %35 = getelementptr inbounds nuw %struct.ESTDIFContext, ptr %34, i32 0, i32 19
  %36 = load ptr, ptr %35, align 8, !tbaa !36
  %37 = icmp ne ptr %36, null
  br i1 %37, label %38, label %80

38:                                               ; preds = %33
  call void @llvm.lifetime.start.p0(i64 8, ptr %9) #12
  %39 = load ptr, ptr %6, align 8, !tbaa !22
  %40 = getelementptr inbounds nuw %struct.ESTDIFContext, ptr %39, i32 0, i32 19
  %41 = load ptr, ptr %40, align 8, !tbaa !36
  %42 = call ptr @av_frame_clone(ptr noundef %41)
  store ptr %42, ptr %9, align 8, !tbaa !26
  %43 = load ptr, ptr %9, align 8, !tbaa !26
  %44 = icmp ne ptr %43, null
  br i1 %44, label %46, label %45

45:                                               ; preds = %38
  store i32 -12, ptr %2, align 4
  store i32 1, ptr %8, align 4
  br label %77

46:                                               ; preds = %38
  %47 = load ptr, ptr %6, align 8, !tbaa !22
  %48 = getelementptr inbounds nuw %struct.ESTDIFContext, ptr %47, i32 0, i32 19
  %49 = load ptr, ptr %48, align 8, !tbaa !36
  %50 = getelementptr inbounds nuw %struct.AVFrame, ptr %49, i32 0, i32 9
  %51 = load i64, ptr %50, align 8, !tbaa !46
  %52 = load ptr, ptr %4, align 8, !tbaa !108
  %53 = getelementptr inbounds nuw %struct.FilterLink, ptr %52, i32 0, i32 10
  %54 = load i64, ptr %53, align 8
  %55 = call i64 @av_inv_q(i64 %54)
  store i64 %55, ptr %10, align 4
  %56 = load ptr, ptr %5, align 8, !tbaa !4
  %57 = getelementptr inbounds nuw %struct.AVFilterContext, ptr %56, i32 0, i32 7
  %58 = load ptr, ptr %57, align 8, !tbaa !48
  %59 = getelementptr inbounds ptr, ptr %58, i64 0
  %60 = load ptr, ptr %59, align 8, !tbaa !24
  %61 = getelementptr inbounds nuw %struct.AVFilterLink, ptr %60, i32 0, i32 13
  %62 = load i64, ptr %10, align 4
  %63 = load i64, ptr %61, align 8
  %64 = call i64 @av_rescale_q(i64 noundef 1, i64 %62, i64 %63) #14
  %65 = add nsw i64 %51, %64
  %66 = load ptr, ptr %9, align 8, !tbaa !26
  %67 = getelementptr inbounds nuw %struct.AVFrame, ptr %66, i32 0, i32 9
  store i64 %65, ptr %67, align 8, !tbaa !46
  %68 = load ptr, ptr %6, align 8, !tbaa !22
  %69 = getelementptr inbounds nuw %struct.ESTDIFContext, ptr %68, i32 0, i32 14
  store i32 1, ptr %69, align 8, !tbaa !111
  %70 = load ptr, ptr %5, align 8, !tbaa !4
  %71 = getelementptr inbounds nuw %struct.AVFilterContext, ptr %70, i32 0, i32 4
  %72 = load ptr, ptr %71, align 8, !tbaa !112
  %73 = getelementptr inbounds ptr, ptr %72, i64 0
  %74 = load ptr, ptr %73, align 8, !tbaa !24
  %75 = load ptr, ptr %9, align 8, !tbaa !26
  %76 = call i32 @filter_frame(ptr noundef %74, ptr noundef %75)
  store i32 %76, ptr %7, align 4, !tbaa !49
  store i32 0, ptr %8, align 4
  br label %77

77:                                               ; preds = %46, %45
  call void @llvm.lifetime.end.p0(i64 8, ptr %9) #12
  %78 = load i32, ptr %8, align 4
  switch i32 %78, label %88 [
    i32 0, label %79
  ]

79:                                               ; preds = %77
  br label %86

80:                                               ; preds = %33, %24
  %81 = load i32, ptr %7, align 4, !tbaa !49
  %82 = icmp slt i32 %81, 0
  br i1 %82, label %83, label %85

83:                                               ; preds = %80
  %84 = load i32, ptr %7, align 4, !tbaa !49
  store i32 %84, ptr %2, align 4
  store i32 1, ptr %8, align 4
  br label %88

85:                                               ; preds = %80
  br label %86

86:                                               ; preds = %85, %79
  %87 = load i32, ptr %7, align 4, !tbaa !49
  store i32 %87, ptr %2, align 4
  store i32 1, ptr %8, align 4
  br label %88

88:                                               ; preds = %86, %83, %77, %23
  call void @llvm.lifetime.end.p0(i64 4, ptr %7) #12
  call void @llvm.lifetime.end.p0(i64 8, ptr %6) #12
  call void @llvm.lifetime.end.p0(i64 8, ptr %5) #12
  call void @llvm.lifetime.end.p0(i64 8, ptr %4) #12
  %89 = load i32, ptr %2, align 4
  ret i32 %89
}