; Function Attrs: nounwind uwtable
define internal i32 @request_frame(ptr noundef readonly captures(none) %0) #2 {
  %2 = load ptr, ptr %0, align 8, !tbaa !89
  %3 = getelementptr inbounds nuw i8, ptr %2, i64 72
  %4 = load ptr, ptr %3, align 8, !tbaa !4
  %5 = getelementptr inbounds nuw i8, ptr %4, i64 96
  %6 = load i32, ptr %5, align 8, !tbaa !90
  %.not = icmp eq i32 %6, 0
  br i1 %.not, label %7, label %.thread29

7:                                                ; preds = %1
  %8 = getelementptr inbounds nuw i8, ptr %2, i64 32
  %9 = load ptr, ptr %8, align 8, !tbaa !91
  %10 = load ptr, ptr %9, align 8, !tbaa !43
  %11 = tail call i32 @ff_request_frame(ptr noundef %10) #11
  %12 = icmp eq i32 %11, -541478725
  br i1 %12, label %13, label %.thread29

13:                                               ; preds = %7
  %14 = getelementptr inbounds nuw i8, ptr %4, i64 120
  %15 = load ptr, ptr %14, align 8, !tbaa !29
  %.not26 = icmp eq ptr %15, null
  br i1 %.not26, label %.thread29, label %16

16:                                               ; preds = %13
  %17 = tail call ptr @av_frame_clone(ptr noundef nonnull %15) #11
  %.not27.not = icmp eq ptr %17, null
  br i1 %.not27.not, label %.thread29, label %18

18:                                               ; preds = %16
  %19 = load ptr, ptr %14, align 8, !tbaa !29
  %20 = getelementptr inbounds nuw i8, ptr %19, i64 136
  %21 = load i64, ptr %20, align 8, !tbaa !40
  %22 = getelementptr inbounds nuw i8, ptr %0, i64 264
  %23 = load i64, ptr %22, align 8
  %.sroa.01.0.insert.insert.i = tail call i64 @llvm.fshl.i64(i64 %23, i64 %23, i64 32)
  %24 = getelementptr inbounds nuw i8, ptr %2, i64 56
  %25 = load ptr, ptr %24, align 8, !tbaa !42
  %26 = load ptr, ptr %25, align 8, !tbaa !43
  %27 = getelementptr inbounds nuw i8, ptr %26, i64 96
  %28 = load i64, ptr %27, align 8
  %29 = tail call i64 @av_rescale_q(i64 noundef 1, i64 %.sroa.01.0.insert.insert.i, i64 %28) #13
  %30 = add nsw i64 %29, %21
  %31 = getelementptr inbounds nuw i8, ptr %17, i64 136
  store i64 %30, ptr %31, align 8, !tbaa !40
  store i32 1, ptr %5, align 8, !tbaa !90
  %32 = load ptr, ptr %8, align 8, !tbaa !91
  %33 = load ptr, ptr %32, align 8, !tbaa !43
  %34 = tail call i32 @filter_frame(ptr noundef %33, ptr noundef nonnull %17)
  br label %.thread29

.thread29:                                        ; preds = %7, %16, %13, %18, %1
  %.0 = phi i32 [ -541478725, %1 ], [ %34, %18 ], [ -541478725, %13 ], [ -12, %16 ], [ %11, %7 ]
  ret i32 %.0
}